target datalayout = "e-m:e-p270:32:32-p271:32:32-p272:64:64-i64:64-i128:128-f80:128-n8:16:32:64-S128"
target triple = "x86_64-pc-linux-gnu"

%struct.eax_s = type { [16 x i8], [16 x i8], [16 x i8] }

@instance = internal global %struct.eax_s zeroinitializer, align 1

; Function Attrs: alwaysinline nounwind
define internal ptr @memcpy.inline(ptr noalias %0, ptr noalias %1, i64 %2) #3 {
  %4 = alloca ptr, align 8
  %5 = alloca ptr, align 8
  %6 = alloca i64, align 8
  store ptr %0, ptr %4, align 8
  store ptr %1, ptr %5, align 8
  store i64 %2, ptr %6, align 8
  %7 = load ptr, ptr %4, align 8
  %8 = load ptr, ptr %5, align 8
  %9 = load i64, ptr %6, align 8
  %10 = load ptr, ptr %4, align 8
  %11 = call i64 @llvm.objectsize.i64.p0(ptr %10, i1 false, i1 true, i1 true)
  %12 = call ptr @__memcpy_chk(ptr noundef %7, ptr noundef %8, i64 noundef %9, i64 noundef %11) #9
  ret ptr %12
}

; Function Attrs: null_pointer_is_valid sspstrong uwtable
define internal void @dCMAC(ptr noundef %0, ptr noundef %1, ptr noundef %2, i16 noundef zeroext %3, ptr noundef %4, i16 noundef zeroext %5) #0 {
  %7 = alloca ptr, align 8
  %8 = alloca ptr, align 8
  %9 = alloca ptr, align 8
  %10 = alloca i16, align 2
  %11 = alloca ptr, align 8
  %12 = alloca i16, align 2
  %13 = alloca ptr, align 8
  %14 = alloca ptr, align 8
  %15 = alloca ptr, align 8
  %16 = alloca i16, align 2
  %17 = alloca i16, align 2
  %18 = alloca i32, align 4
  %19 = alloca i32, align 4
  %20 = alloca i32, align 4
  store ptr %0, ptr %7, align 8
  store ptr %1, ptr %8, align 8
  store ptr %2, ptr %9, align 8
  store i16 %3, ptr %10, align 2
  store ptr %4, ptr %11, align 8
  store i16 %5, ptr %12, align 2
  call void @llvm.lifetime.start.p0(i64 8, ptr %13) #9
  call void @llvm.lifetime.start.p0(i64 8, ptr %14) #9
  call void @llvm.lifetime.start.p0(i64 8, ptr %15) #9
  call void @llvm.lifetime.start.p0(i64 2, ptr %16) #9
  %21 = load i16, ptr %10, align 2
  %22 = zext i16 %21 to i32
  %23 = load i16, ptr %12, align 2
  %24 = zext i16 %23 to i32
  %25 = add i32 %22, %24
  %26 = trunc i32 %25 to i16
  store i16 %26, ptr %16, align 2
  call void @llvm.lifetime.start.p0(i64 2, ptr %17) #9
  %27 = load i16, ptr %16, align 2
  store i16 %27, ptr %17, align 2
  %28 = load i16, ptr %16, align 2
  %29 = zext i16 %28 to i32
  %30 = and i32 %29, 15
  %31 = icmp ne i32 %30, 0
  br i1 %31, label %32, label %41

32:                                               ; preds = %6
  %33 = load i16, ptr %17, align 2
  %34 = zext i16 %33 to i32
  %35 = and i32 %34, 15
  %36 = sub i32 16, %35
  %37 = load i16, ptr %17, align 2
  %38 = zext i16 %37 to i32
  %39 = add i32 %38, %36
  %40 = trunc i32 %39 to i16
  store i16 %40, ptr %17, align 2
  br label %41

41:                                               ; preds = %32, %6
  %42 = load i16, ptr %17, align 2
  %43 = zext i16 %42 to i64
  %44 = call noalias ptr @g_malloc(i64 noundef %43) #11
  store ptr %44, ptr %14, align 8
  %45 = load ptr, ptr %14, align 8
  %46 = icmp eq ptr %45, null
  br i1 %46, label %47, label %48

47:                                               ; preds = %41
  store i32 1, ptr %18, align 4
  br label %190

48:                                               ; preds = %41
  %49 = load ptr, ptr %14, align 8
  %50 = load ptr, ptr %9, align 8
  %51 = load i16, ptr %10, align 2
  %52 = zext i16 %51 to i64
  %53 = call ptr @memcpy.inline(ptr noundef %49, ptr noundef %50, i64 noundef %52) #9
  %54 = load ptr, ptr %11, align 8
  %55 = icmp ne ptr %54, null
  br i1 %55, label %56, label %65

56:                                               ; preds = %48
  %57 = load ptr, ptr %14, align 8
  %58 = load i16, ptr %10, align 2
  %59 = zext i16 %58 to i64
  %60 = getelementptr i8, ptr %57, i64 %59
  %61 = load ptr, ptr %11, align 8
  %62 = load i16, ptr %12, align 2
  %63 = zext i16 %62 to i64
  %64 = call ptr @memcpy.inline(ptr noundef %60, ptr noundef %61, i64 noundef %63) #9
  br label %65

65:                                               ; preds = %56, %48
  %66 = load i16, ptr %17, align 2
  %67 = zext i16 %66 to i32
  %68 = load i16, ptr %16, align 2
  %69 = zext i16 %68 to i32
  %70 = icmp ne i32 %67, %69
  br i1 %70, label %71, label %122

71:                                               ; preds = %65
  %72 = load ptr, ptr %14, align 8
  %73 = load i16, ptr %16, align 2
  %74 = zext i16 %73 to i64
  %75 = getelementptr i8, ptr %72, i64 %74
  store i8 -128, ptr %75, align 1
  %76 = load ptr, ptr %14, align 8
  %77 = load i16, ptr %16, align 2
  %78 = zext i16 %77 to i32
  %79 = add i32 %78, 1
  %80 = sext i32 %79 to i64
  %81 = getelementptr i8, ptr %76, i64 %80
  store ptr %81, ptr %15, align 8
  br label %82

82:                                               ; preds = %91, %71
  %83 = load ptr, ptr %15, align 8
  %84 = load ptr, ptr %14, align 8
  %85 = load i16, ptr %17, align 2
  %86 = zext i16 %85 to i64
  %87 = getelementptr i8, ptr %84, i64 %86
  %88 = icmp ult ptr %83, %87
  br i1 %88, label %89, label %94

89:                                               ; preds = %82
  %90 = load ptr, ptr %15, align 8
  store i8 0, ptr %90, align 1
  br label %91

91:                                               ; preds = %89
  %92 = load ptr, ptr %15, align 8
  %93 = getelementptr i8, ptr %92, i32 1
  store ptr %93, ptr %15, align 8
  br label %82, !llvm.loop !10

94:                                               ; preds = %82
  %95 = load ptr, ptr %14, align 8
  %96 = load i16, ptr %17, align 2
  %97 = zext i16 %96 to i32
  %98 = sub i32 %97, 16
  %99 = sext i32 %98 to i64
  %100 = getelementptr i8, ptr %95, i64 %99
  store ptr %100, ptr %15, align 8
  call void @llvm.lifetime.start.p0(i64 4, ptr %19) #9
  store i32 0, ptr %19, align 4
  br label %101

101:                                              ; preds = %118, %94
  %102 = load i32, ptr %19, align 4
  %103 = icmp slt i32 %102, 16
  br i1 %103, label %104, label %121

104:                                              ; preds = %101
  %105 = load i32, ptr %19, align 4
  %106 = sext i32 %105 to i64
  %107 = getelementptr [16 x i8], ptr getelementptr inbounds nuw (%struct.eax_s, ptr @instance, i32 0, i32 2), i64 0, i64 %106
  %108 = load i8, ptr %107, align 1
  %109 = zext i8 %108 to i32
  %110 = load ptr, ptr %15, align 8
  %111 = load i32, ptr %19, align 4
  %112 = sext i32 %111 to i64
  %113 = getelementptr i8, ptr %110, i64 %112
  %114 = load i8, ptr %113, align 1
  %115 = zext i8 %114 to i32
  %116 = xor i32 %115, %109
  %117 = trunc i32 %116 to i8
  store i8 %117, ptr %113, align 1
  br label %118

118:                                              ; preds = %104
  %119 = load i32, ptr %19, align 4
  %120 = add i32 %119, 1
  store i32 %120, ptr %19, align 4
  br label %101, !llvm.loop !11

121:                                              ; preds = %101
  call void @llvm.lifetime.end.p0(i64 4, ptr %19) #9
  br label %150

122:                                              ; preds = %65
  %123 = load ptr, ptr %14, align 8
  %124 = load i16, ptr %17, align 2
  %125 = zext i16 %124 to i32
  %126 = sub i32 %125, 16
  %127 = sext i32 %126 to i64
  %128 = getelementptr i8, ptr %123, i64 %127
  store ptr %128, ptr %15, align 8
  call void @llvm.lifetime.start.p0(i64 4, ptr %20) #9
  store i32 0, ptr %20, align 4
  br label %129

129:                                              ; preds = %146, %122
  %130 = load i32, ptr %20, align 4
  %131 = icmp slt i32 %130, 16
  br i1 %131, label %132, label %149

132:                                              ; preds = %129
  %133 = load i32, ptr %20, align 4
  %134 = sext i32 %133 to i64
  %135 = getelementptr [16 x i8], ptr getelementptr inbounds nuw (%struct.eax_s, ptr @instance, i32 0, i32 1), i64 0, i64 %134
  %136 = load i8, ptr %135, align 1
  %137 = zext i8 %136 to i32
  %138 = load ptr, ptr %15, align 8
  %139 = load i32, ptr %20, align 4
  %140 = sext i32 %139 to i64
  %141 = getelementptr i8, ptr %138, i64 %140
  %142 = load i8, ptr %141, align 1
  %143 = zext i8 %142 to i32
  %144 = xor i32 %143, %137
  %145 = trunc i32 %144 to i8
  store i8 %145, ptr %141, align 1
  br label %146

146:                                              ; preds = %132
  %147 = load i32, ptr %20, align 4
  %148 = add i32 %147, 1
  store i32 %148, ptr %20, align 4
  br label %129, !llvm.loop !12

149:                                              ; preds = %129
  call void @llvm.lifetime.end.p0(i64 4, ptr %20) #9
  br label %150

150:                                              ; preds = %149, %121
  %151 = call i32 @gcry_cipher_open(ptr noundef %13, i32 noundef 7, i32 noundef 3, i32 noundef 0)
  %152 = icmp ne i32 %151, 0
  br i1 %152, label %153, label %155

153:                                              ; preds = %150
  %154 = load ptr, ptr %14, align 8
  call void @g_free(ptr noundef %154)
  store i32 1, ptr %18, align 4
  br label %190

155:                                              ; preds = %150
  %156 = load ptr, ptr %13, align 8
  %157 = load ptr, ptr %7, align 8
  %158 = call i32 @gcry_cipher_setkey(ptr noundef %156, ptr noundef %157, i64 noundef 16)
  %159 = icmp ne i32 %158, 0
  br i1 %159, label %160, label %163

160:                                              ; preds = %155
  %161 = load ptr, ptr %14, align 8
  call void @g_free(ptr noundef %161)
  %162 = load ptr, ptr %13, align 8
  call void @gcry_cipher_close(ptr noundef %162)
  store i32 1, ptr %18, align 4
  br label %190

163:                                              ; preds = %155
  %164 = load ptr, ptr %13, align 8
  %165 = load ptr, ptr %8, align 8
  %166 = call i32 @gcry_cipher_setiv(ptr noundef %164, ptr noundef %165, i64 noundef 16)
  %167 = icmp ne i32 %166, 0
  br i1 %167, label %168, label %171

168:                                              ; preds = %163
  %169 = load ptr, ptr %14, align 8
  call void @g_free(ptr noundef %169)
  %170 = load ptr, ptr %13, align 8
  call void @gcry_cipher_close(ptr noundef %170)
  store i32 1, ptr %18, align 4
  br label %190

171:                                              ; preds = %163
  %172 = load ptr, ptr %13, align 8
  %173 = load ptr, ptr %14, align 8
  %174 = load i16, ptr %17, align 2
  %175 = zext i16 %174 to i64
  %176 = load ptr, ptr %14, align 8
  %177 = load i16, ptr %17, align 2
  %178 = zext i16 %177 to i64
  %179 = call i32 @gcry_cipher_encrypt(ptr noundef %172, ptr noundef %173, i64 noundef %175, ptr noundef %176, i64 noundef %178)
  %180 = icmp ne i32 %179, 0
  br i1 %180, label %181, label %184

181:                                              ; preds = %171
  %182 = load ptr, ptr %14, align 8
  call void @g_free(ptr noundef %182)
  %183 = load ptr, ptr %13, align 8
  call void @gcry_cipher_close(ptr noundef %183)
  store i32 1, ptr %18, align 4
  br label %190

184:                                              ; preds = %171
  %185 = load ptr, ptr %8, align 8
  %186 = load ptr, ptr %15, align 8
  %187 = call ptr @memcpy.inline(ptr noundef %185, ptr noundef %186, i64 noundef 16) #9
  %188 = load ptr, ptr %14, align 8
  call void @g_free(ptr noundef %188)
  %189 = load ptr, ptr %13, align 8
  call void @gcry_cipher_close(ptr noundef %189)
  store i32 1, ptr %18, align 4
  br label %190

190:                                              ; preds = %184, %181, %168, %160, %153, %47
  call void @llvm.lifetime.end.p0(i64 2, ptr %17) #9
  call void @llvm.lifetime.end.p0(i64 2, ptr %16) #9
  call void @llvm.lifetime.end.p0(i64 8, ptr %15) #9
  call void @llvm.lifetime.end.p0(i64 8, ptr %14) #9
  call void @llvm.lifetime.end.p0(i64 8, ptr %13) #9
  ret void
}