; Function Attrs: null_pointer_is_valid sspstrong uwtable
define internal fastcc void @dCMAC(ptr noundef %0, ptr noundef %1, ptr noundef readonly captures(none) %2, i16 noundef zeroext %3, ptr noundef readonly captures(address_is_null) %4, i16 noundef zeroext %5) unnamed_addr #0 {
  %7 = alloca ptr, align 8
  call void @llvm.lifetime.start.p0(i64 8, ptr nonnull %7) #9
  %8 = add i16 %5, %3
  %.biased = add i16 %8, 15
  %.054 = and i16 %.biased, -16
  %9 = zext i16 %.054 to i64
  %10 = tail call noalias ptr @g_malloc(i64 noundef %9) #10
  %11 = icmp eq ptr %10, null
  br i1 %11, label %66, label %12

12:                                               ; preds = %6
  %13 = zext i16 %3 to i64
  %14 = tail call ptr @__memcpy_chk(ptr noundef nonnull %10, ptr noundef %2, i64 noundef range(i64 0, 65536) %13, i64 noundef %9) #9, !alias.scope !9
  %.not62 = icmp eq ptr %4, null
  br i1 %.not62, label %23, label %15

15:                                               ; preds = %12
  %16 = getelementptr i8, ptr %10, i64 %13
  %17 = zext i16 %5 to i64
  %18 = sub nsw i64 %9, %13
  %19 = icmp ugt i16 %3, %.054
  %20 = select i1 %19, i64 0, i64 %18
  %21 = icmp ne i64 %20, -1
  tail call void @llvm.assume(i1 %21)
  %22 = tail call ptr @__memcpy_chk(ptr noundef %16, ptr noundef nonnull %4, i64 noundef range(i64 0, 65536) %17, i64 noundef %20) #9, !alias.scope !13
  br label %23

23:                                               ; preds = %15, %12
  %.not63 = icmp eq i16 %.054, %8
  br i1 %.not63, label %38, label %24

24:                                               ; preds = %23
  %25 = zext i16 %8 to i64
  %26 = getelementptr i8, ptr %10, i64 %25
  store i8 -128, ptr %26, align 1
  %27 = getelementptr i8, ptr %10, i64 %9
  %.05569 = getelementptr i8, ptr %26, i64 1
  %28 = icmp ult ptr %.05569, %27
  br i1 %28, label %.lr.ph.preheader, label %._crit_edge

.lr.ph.preheader:                                 ; preds = %24
  %29 = xor i64 %25, -1
  %30 = add nsw i64 %29, %9
  tail call void @llvm.memset.p0.i64(ptr align 1 %.05569, i8 0, i64 %30, i1 false)
  br label %._crit_edge

._crit_edge:                                      ; preds = %.lr.ph.preheader, %24
  %31 = getelementptr i8, ptr %27, i64 -16
  br label %32

32:                                               ; preds = %._crit_edge, %32
  %indvars.iv = phi i64 [ 0, %._crit_edge ], [ %indvars.iv.next, %32 ]
  %33 = getelementptr [16 x i8], ptr getelementptr inbounds nuw (i8, ptr @instance, i64 32), i64 0, i64 %indvars.iv
  %34 = load i8, ptr %33, align 1
  %35 = getelementptr i8, ptr %31, i64 %indvars.iv
  %36 = load i8, ptr %35, align 1
  %37 = xor i8 %36, %34
  store i8 %37, ptr %35, align 1
  %indvars.iv.next = add nuw nsw i64 %indvars.iv, 1
  %exitcond.not = icmp eq i64 %indvars.iv.next, 16
  br i1 %exitcond.not, label %.loopexit, label %32, !llvm.loop !17

38:                                               ; preds = %23
  %39 = getelementptr i8, ptr %10, i64 %9
  %40 = getelementptr i8, ptr %39, i64 -16
  br label %41

41:                                               ; preds = %38, %41
  %indvars.iv75 = phi i64 [ 0, %38 ], [ %indvars.iv.next76, %41 ]
  %42 = getelementptr [16 x i8], ptr getelementptr inbounds nuw (i8, ptr @instance, i64 16), i64 0, i64 %indvars.iv75
  %43 = load i8, ptr %42, align 1
  %44 = getelementptr i8, ptr %40, i64 %indvars.iv75
  %45 = load i8, ptr %44, align 1
  %46 = xor i8 %45, %43
  store i8 %46, ptr %44, align 1
  %indvars.iv.next76 = add nuw nsw i64 %indvars.iv75, 1
  %exitcond78.not = icmp eq i64 %indvars.iv.next76, 16
  br i1 %exitcond78.not, label %.loopexit, label %41, !llvm.loop !18

.loopexit:                                        ; preds = %32, %41
  %.1 = phi ptr [ %40, %41 ], [ %31, %32 ]
  %47 = call i32 @gcry_cipher_open(ptr noundef nonnull %7, i32 noundef 7, i32 noundef 3, i32 noundef 0)
  %.not64 = icmp eq i32 %47, 0
  br i1 %.not64, label %49, label %48

48:                                               ; preds = %.loopexit
  call void @g_free(ptr noundef nonnull %10)
  br label %66

49:                                               ; preds = %.loopexit
  %50 = load ptr, ptr %7, align 8
  %51 = call i32 @gcry_cipher_setkey(ptr noundef %50, ptr noundef %0, i64 noundef 16)
  %.not65 = icmp eq i32 %51, 0
  br i1 %.not65, label %54, label %52

52:                                               ; preds = %49
  call void @g_free(ptr noundef nonnull %10)
  %53 = load ptr, ptr %7, align 8
  call void @gcry_cipher_close(ptr noundef %53)
  br label %66

54:                                               ; preds = %49
  %55 = load ptr, ptr %7, align 8
  %56 = call i32 @gcry_cipher_setiv(ptr noundef %55, ptr noundef %1, i64 noundef 16)
  %.not66 = icmp eq i32 %56, 0
  br i1 %.not66, label %59, label %57

57:                                               ; preds = %54
  call void @g_free(ptr noundef nonnull %10)
  %58 = load ptr, ptr %7, align 8
  call void @gcry_cipher_close(ptr noundef %58)
  br label %66

59:                                               ; preds = %54
  %60 = load ptr, ptr %7, align 8
  %61 = call i32 @gcry_cipher_encrypt(ptr noundef %60, ptr noundef nonnull %10, i64 noundef %9, ptr noundef nonnull %10, i64 noundef %9)
  %.not67 = icmp eq i32 %61, 0
  br i1 %.not67, label %64, label %62

62:                                               ; preds = %59
  call void @g_free(ptr noundef nonnull %10)
  %63 = load ptr, ptr %7, align 8
  call void @gcry_cipher_close(ptr noundef %63)
  br label %66

64:                                               ; preds = %59
  call void @llvm.memcpy.p0.p0.i64(ptr noundef align 1 dereferenceable(16) %1, ptr noundef align 1 dereferenceable(16) %.1, i64 noundef 16, i1 noundef false) #9
  call void @g_free(ptr noundef nonnull %10)
  %65 = load ptr, ptr %7, align 8
  call void @gcry_cipher_close(ptr noundef %65)
  br label %66

66:                                               ; preds = %6, %64, %62, %57, %52, %48
  call void @llvm.lifetime.end.p0(i64 8, ptr nonnull %7) #9
  ret void
}